target datalayout = "e-m:e-p270:32:32-p271:32:32-p272:64:64-i64:64-i128:128-f80:128-n8:16:32:64-S128"
target triple = "x86_64-pc-linux-gnu"

%struct.Match_t = type { %struct.Group_t, %struct.Group_t, ptr, ptr }
%struct.Group_t = type { [10 x ptr], [10 x ptr], ptr, i32 }

; Function Attrs: nounwind uwtable
define internal ptr @gobble(ptr noundef %0, ptr noundef %1, i32 noundef %2, ptr noundef %3, i32 noundef %4) #0 {
  %6 = alloca ptr, align 8
  %7 = alloca ptr, align 8
  %8 = alloca ptr, align 8
  %9 = alloca i32, align 4
  %10 = alloca ptr, align 8
  %11 = alloca i32, align 4
  %12 = alloca i32, align 4
  %13 = alloca ptr, align 8
  %14 = alloca i32, align 4
  %15 = alloca i32, align 4
  store ptr %0, ptr %7, align 8
  store ptr %1, ptr %8, align 8
  store i32 %2, ptr %9, align 4
  store ptr %3, ptr %10, align 8
  store i32 %4, ptr %11, align 4
  store i32 0, ptr %12, align 4
  store ptr null, ptr %13, align 8
  store i32 0, ptr %14, align 4
  br label %16

16:                                               ; preds = %148, %5
  %17 = load ptr, ptr %8, align 8
  %18 = getelementptr inbounds i8, ptr %17, i32 1
  store ptr %18, ptr %8, align 8
  %19 = load i8, ptr %17, align 1
  %20 = sext i8 %19 to i32
  switch i32 %20, label %147 [
    i32 92, label %21
    i32 0, label %28
    i32 91, label %29
    i32 93, label %63
    i32 40, label %83
    i32 41, label %119
    i32 124, label %135
  ]

21:                                               ; preds = %16
  %22 = load ptr, ptr %8, align 8
  %23 = getelementptr inbounds i8, ptr %22, i32 1
  store ptr %23, ptr %8, align 8
  %24 = load i8, ptr %22, align 1
  %25 = icmp ne i8 %24, 0
  br i1 %25, label %26, label %27

26:                                               ; preds = %21
  br label %148

27:                                               ; preds = %21
  br label %28

28:                                               ; preds = %27, %16
  store ptr null, ptr %6, align 8
  br label %149

29:                                               ; preds = %16
  %30 = load ptr, ptr %13, align 8
  %31 = icmp ne ptr %30, null
  br i1 %31, label %42, label %32

32:                                               ; preds = %29
  %33 = load ptr, ptr %8, align 8
  %34 = load i8, ptr %33, align 1
  %35 = sext i8 %34 to i32
  %36 = icmp eq i32 %35, 33
  br i1 %36, label %37, label %40

37:                                               ; preds = %32
  %38 = load ptr, ptr %8, align 8
  %39 = getelementptr inbounds i8, ptr %38, i32 1
  store ptr %39, ptr %8, align 8
  br label %40

40:                                               ; preds = %37, %32
  %41 = load ptr, ptr %8, align 8
  store ptr %41, ptr %13, align 8
  br label %62

42:                                               ; preds = %29
  %43 = load ptr, ptr %8, align 8
  %44 = load i8, ptr %43, align 1
  %45 = sext i8 %44 to i32
  %46 = icmp eq i32 %45, 46
  br i1 %46, label %57, label %47

47:                                               ; preds = %42
  %48 = load ptr, ptr %8, align 8
  %49 = load i8, ptr %48, align 1
  %50 = sext i8 %49 to i32
  %51 = icmp eq i32 %50, 61
  br i1 %51, label %57, label %52

52:                                               ; preds = %47
  %53 = load ptr, ptr %8, align 8
  %54 = load i8, ptr %53, align 1
  %55 = sext i8 %54 to i32
  %56 = icmp eq i32 %55, 58
  br i1 %56, label %57, label %61

57:                                               ; preds = %52, %47, %42
  %58 = load ptr, ptr %8, align 8
  %59 = load i8, ptr %58, align 1
  %60 = sext i8 %59 to i32
  store i32 %60, ptr %14, align 4
  br label %61

61:                                               ; preds = %57, %52
  br label %62

62:                                               ; preds = %61, %40
  br label %148

63:                                               ; preds = %16
  %64 = load ptr, ptr %13, align 8
  %65 = icmp ne ptr %64, null
  br i1 %65, label %66, label %82

66:                                               ; preds = %63
  %67 = load ptr, ptr %8, align 8
  %68 = getelementptr inbounds i8, ptr %67, i64 -2
  %69 = load i8, ptr %68, align 1
  %70 = sext i8 %69 to i32
  %71 = load i32, ptr %14, align 4
  %72 = icmp eq i32 %70, %71
  br i1 %72, label %73, label %74

73:                                               ; preds = %66
  store i32 0, ptr %14, align 4
  br label %81

74:                                               ; preds = %66
  %75 = load ptr, ptr %13, align 8
  %76 = load ptr, ptr %8, align 8
  %77 = getelementptr inbounds i8, ptr %76, i64 -1
  %78 = icmp ne ptr %75, %77
  br i1 %78, label %79, label %80

79:                                               ; preds = %74
  store ptr null, ptr %13, align 8
  br label %80

80:                                               ; preds = %79, %74
  br label %81

81:                                               ; preds = %80, %73
  br label %82

82:                                               ; preds = %81, %63
  br label %148

83:                                               ; preds = %16
  %84 = load ptr, ptr %13, align 8
  %85 = icmp ne ptr %84, null
  br i1 %85, label %118, label %86

86:                                               ; preds = %83
  %87 = load i32, ptr %12, align 4
  %88 = add nsw i32 %87, 1
  store i32 %88, ptr %12, align 4
  %89 = load ptr, ptr %10, align 8
  %90 = load i32, ptr %89, align 4
  %91 = add nsw i32 %90, 1
  store i32 %91, ptr %89, align 4
  store i32 %90, ptr %15, align 4
  %92 = load i32, ptr %11, align 4
  %93 = icmp ne i32 %92, 0
  br i1 %93, label %94, label %117

94:                                               ; preds = %86
  %95 = load i32, ptr %9, align 4
  %96 = icmp ne i32 %95, 0
  br i1 %96, label %100, label %97

97:                                               ; preds = %94
  %98 = load i32, ptr %15, align 4
  %99 = add nsw i32 %98, 1
  store i32 %99, ptr %15, align 4
  br label %100

100:                                              ; preds = %97, %94
  %101 = load i32, ptr %15, align 4
  %102 = icmp slt i32 %101, 10
  br i1 %102, label %103, label %116

103:                                              ; preds = %100
  %104 = load ptr, ptr %7, align 8
  %105 = getelementptr inbounds %struct.Match_t, ptr %104, i32 0, i32 0
  %106 = getelementptr inbounds %struct.Group_t, ptr %105, i32 0, i32 1
  %107 = load i32, ptr %15, align 4
  %108 = sext i32 %107 to i64
  %109 = getelementptr inbounds [10 x ptr], ptr %106, i64 0, i64 %108
  store ptr null, ptr %109, align 8
  %110 = load ptr, ptr %7, align 8
  %111 = getelementptr inbounds %struct.Match_t, ptr %110, i32 0, i32 0
  %112 = getelementptr inbounds %struct.Group_t, ptr %111, i32 0, i32 0
  %113 = load i32, ptr %15, align 4
  %114 = sext i32 %113 to i64
  %115 = getelementptr inbounds [10 x ptr], ptr %112, i64 0, i64 %114
  store ptr null, ptr %115, align 8
  br label %116

116:                                              ; preds = %103, %100
  br label %117

117:                                              ; preds = %116, %86
  br label %118

118:                                              ; preds = %117, %83
  br label %148

119:                                              ; preds = %16
  %120 = load ptr, ptr %13, align 8
  %121 = icmp ne ptr %120, null
  br i1 %121, label %134, label %122

122:                                              ; preds = %119
  %123 = load i32, ptr %12, align 4
  %124 = add nsw i32 %123, -1
  store i32 %124, ptr %12, align 4
  %125 = icmp sle i32 %123, 0
  br i1 %125, label %126, label %134

126:                                              ; preds = %122
  %127 = load i32, ptr %9, align 4
  %128 = icmp ne i32 %127, 0
  br i1 %128, label %129, label %130

129:                                              ; preds = %126
  br label %132

130:                                              ; preds = %126
  %131 = load ptr, ptr %8, align 8
  br label %132

132:                                              ; preds = %130, %129
  %133 = phi ptr [ null, %129 ], [ %131, %130 ]
  store ptr %133, ptr %6, align 8
  br label %149

134:                                              ; preds = %122, %119
  br label %148

135:                                              ; preds = %16
  %136 = load ptr, ptr %13, align 8
  %137 = icmp ne ptr %136, null
  br i1 %137, label %146, label %138

138:                                              ; preds = %135
  %139 = load i32, ptr %12, align 4
  %140 = icmp ne i32 %139, 0
  br i1 %140, label %146, label %141

141:                                              ; preds = %138
  %142 = load i32, ptr %9, align 4
  %143 = icmp eq i32 %142, 124
  br i1 %143, label %144, label %146

144:                                              ; preds = %141
  %145 = load ptr, ptr %8, align 8
  store ptr %145, ptr %6, align 8
  br label %149

146:                                              ; preds = %141, %138, %135
  br label %148

147:                                              ; preds = %16
  br label %148

148:                                              ; preds = %147, %146, %134, %118, %82, %62, %26
  br label %16

149:                                              ; preds = %144, %132, %28
  %150 = load ptr, ptr %6, align 8
  ret ptr %150
}

; Function Attrs: nounwind uwtable
define internal i32 @grpmatch(ptr noundef %0, i32 noundef %1, ptr noundef %2, ptr noundef %3, ptr noundef %4, i32 noundef %5) #0 {
  %7 = alloca i32, align 4
  %8 = alloca ptr, align 8
  %9 = alloca i32, align 4
  %10 = alloca ptr, align 8
  %11 = alloca ptr, align 8
  %12 = alloca ptr, align 8
  %13 = alloca i32, align 4
  %14 = alloca ptr, align 8
  store ptr %0, ptr %8, align 8
  store i32 %1, ptr %9, align 4
  store ptr %2, ptr %10, align 8
  store ptr %3, ptr %11, align 8
  store ptr %4, ptr %12, align 8
  store i32 %5, ptr %13, align 4
  br label %15

15:                                               ; preds = %39, %6
  %16 = load ptr, ptr %11, align 8
  store ptr %16, ptr %14, align 8
  br label %17

17:                                               ; preds = %35, %15
  %18 = load ptr, ptr %8, align 8
  %19 = load i32, ptr %9, align 4
  %20 = load ptr, ptr %10, align 8
  %21 = load ptr, ptr %14, align 8
  %22 = load ptr, ptr %12, align 8
  %23 = load i32, ptr %13, align 4
  %24 = call i32 @onematch(ptr noundef %18, i32 noundef %19, ptr noundef %20, ptr noundef %21, ptr noundef %22, ptr noundef null, i32 noundef %23)
  %25 = icmp ne i32 %24, 0
  br i1 %25, label %26, label %38

26:                                               ; preds = %17
  %27 = load ptr, ptr %8, align 8
  %28 = getelementptr inbounds %struct.Match_t, ptr %27, i32 0, i32 3
  %29 = load ptr, ptr %28, align 8
  store ptr %29, ptr %14, align 8
  %30 = load i8, ptr %29, align 1
  %31 = sext i8 %30 to i32
  %32 = icmp ne i32 %31, 38
  br i1 %32, label %33, label %34

33:                                               ; preds = %26
  store i32 1, ptr %7, align 4
  br label %45

34:                                               ; preds = %26
  br label %35

35:                                               ; preds = %34
  %36 = load ptr, ptr %14, align 8
  %37 = getelementptr inbounds i8, ptr %36, i32 1
  store ptr %37, ptr %14, align 8
  br label %17

38:                                               ; preds = %17
  br label %39

39:                                               ; preds = %38
  %40 = load ptr, ptr %8, align 8
  %41 = load ptr, ptr %11, align 8
  %42 = call ptr @gobble(ptr noundef %40, ptr noundef %41, i32 noundef 124, ptr noundef %9, i32 noundef 1)
  store ptr %42, ptr %11, align 8
  %43 = icmp ne ptr %42, null
  br i1 %43, label %15, label %44

44:                                               ; preds = %39
  store i32 0, ptr %7, align 4
  br label %45

45:                                               ; preds = %44, %33
  %46 = load i32, ptr %7, align 4
  ret i32 %46
}