; Function Attrs: nofree nounwind memory(readwrite, inaccessiblemem: read) uwtable
define internal fastcc range(i32 0, 2) i32 @grpmatch(ptr noundef nonnull captures(none) %0, i32 noundef range(i32 -2147483647, -2147483648) %1, ptr noundef %2, ptr noundef %3, ptr noundef %4) unnamed_addr #0 {
  %6 = getelementptr inbounds nuw i8, ptr %0, i64 360
  %7 = getelementptr inbounds nuw i8, ptr %0, i64 80
  br label %gobble.exit

gobble.exit:                                      ; preds = %47, %5
  %.016 = phi i32 [ %1, %5 ], [ %.1, %47 ]
  %.011 = phi ptr [ %3, %5 ], [ %14, %47 ]
  %8 = tail call fastcc i32 @onematch(ptr noundef %0, i32 noundef %.016, ptr noundef %2, ptr noundef %.011, ptr noundef %4, ptr noundef null)
  %.not22 = icmp eq i32 %8, 0
  br i1 %.not22, label %.split.split.split.i.preheader, label %.lr.ph

.split.split.split.i.preheader:                   ; preds = %9, %gobble.exit
  br label %.split.split.split.i

9:                                                ; preds = %.lr.ph
  %10 = getelementptr inbounds nuw i8, ptr %12, i64 1
  %11 = tail call fastcc i32 @onematch(ptr noundef %0, i32 noundef %.016, ptr noundef %2, ptr noundef nonnull %10, ptr noundef %4, ptr noundef null)
  %.not = icmp eq i32 %11, 0
  br i1 %.not, label %.split.split.split.i.preheader, label %.lr.ph

.lr.ph:                                           ; preds = %gobble.exit, %9
  %12 = load ptr, ptr %6, align 8
  %13 = load i8, ptr %12, align 1
  %.not14 = icmp eq i8 %13, 38
  br i1 %.not14, label %9, label %gobble.exit.thread

.split.split.split.i:                             ; preds = %.split.split.split.i.backedge, %.split.split.split.i.preheader
  %.1 = phi i32 [ %.016, %.split.split.split.i.preheader ], [ %.1.be, %.split.split.split.i.backedge ]
  %.043.i = phi ptr [ %.011, %.split.split.split.i.preheader ], [ %.043.i.be, %.split.split.split.i.backedge ]
  %.040.i = phi i32 [ 0, %.split.split.split.i.preheader ], [ %.040.i.be, %.split.split.split.i.backedge ]
  %.038.i = phi ptr [ null, %.split.split.split.i.preheader ], [ %.038.i.be, %.split.split.split.i.backedge ]
  %.037.i = phi i32 [ 0, %.split.split.split.i.preheader ], [ %.037.i.be, %.split.split.split.i.backedge ]
  %14 = getelementptr inbounds nuw i8, ptr %.043.i, i64 1
  %15 = load i8, ptr %.043.i, align 1
  switch i8 %15, label %.split.split.split.i.backedge [
    i8 92, label %16
    i8 0, label %gobble.exit.thread
    i8 91, label %19
    i8 93, label %27
    i8 40, label %34
    i8 41, label %43
    i8 124, label %47
  ]

16:                                               ; preds = %.split.split.split.i
  %17 = getelementptr inbounds nuw i8, ptr %.043.i, i64 2
  %18 = load i8, ptr %14, align 1
  %.not55.i = icmp eq i8 %18, 0
  br i1 %.not55.i, label %gobble.exit.thread, label %.split.split.split.i.backedge

19:                                               ; preds = %.split.split.split.i
  %.not54.i = icmp eq ptr %.038.i, null
  %20 = load i8, ptr %14, align 1
  br i1 %.not54.i, label %21, label %24

21:                                               ; preds = %19
  %22 = icmp eq i8 %20, 33
  %23 = getelementptr inbounds nuw i8, ptr %.043.i, i64 2
  %spec.select.i = select i1 %22, ptr %23, ptr %14
  br label %.split.split.split.i.backedge

24:                                               ; preds = %19
  switch i8 %20, label %.split.split.split.i.backedge [
    i8 46, label %25
    i8 61, label %25
    i8 58, label %25
  ]

25:                                               ; preds = %24, %24, %24
  %26 = zext nneg i8 %20 to i32
  br label %.split.split.split.i.backedge

27:                                               ; preds = %.split.split.split.i
  %.not52.i = icmp eq ptr %.038.i, null
  br i1 %.not52.i, label %.split.split.split.i.backedge, label %28

28:                                               ; preds = %27
  %29 = getelementptr inbounds i8, ptr %.043.i, i64 -1
  %30 = load i8, ptr %29, align 1
  %31 = sext i8 %30 to i32
  %32 = icmp eq i32 %.037.i, %31
  br i1 %32, label %.split.split.split.i.backedge, label %33

33:                                               ; preds = %28
  %.not53.i = icmp eq ptr %.038.i, %.043.i
  %spec.store.select.i = select i1 %.not53.i, ptr %.038.i, ptr null
  br label %.split.split.split.i.backedge

34:                                               ; preds = %.split.split.split.i
  %.not49.i = icmp eq ptr %.038.i, null
  br i1 %.not49.i, label %35, label %.split.split.split.i.backedge

35:                                               ; preds = %34
  %36 = add nsw i32 %.040.i, 1
  %37 = add nsw i32 %.1, 1
  %38 = icmp slt i32 %.1, 10
  br i1 %38, label %39, label %.split.split.split.i.backedge

39:                                               ; preds = %35
  %40 = sext i32 %.1 to i64
  %41 = getelementptr inbounds [10 x ptr], ptr %7, i64 0, i64 %40
  store ptr null, ptr %41, align 8
  %42 = getelementptr inbounds [10 x ptr], ptr %0, i64 0, i64 %40
  store ptr null, ptr %42, align 8
  br label %.split.split.split.i.backedge

43:                                               ; preds = %.split.split.split.i
  %.not.i = icmp eq ptr %.038.i, null
  br i1 %.not.i, label %44, label %.split.split.split.i.backedge

44:                                               ; preds = %43
  %45 = add nsw i32 %.040.i, -1
  %46 = icmp slt i32 %.040.i, 1
  br i1 %46, label %gobble.exit.thread, label %.split.split.split.i.backedge

47:                                               ; preds = %.split.split.split.i
  %48 = icmp eq ptr %.038.i, null
  %49 = icmp eq i32 %.040.i, 0
  %or.cond.not47.i = select i1 %48, i1 %49, i1 false
  br i1 %or.cond.not47.i, label %gobble.exit, label %.split.split.split.i.backedge

.split.split.split.i.backedge:                    ; preds = %47, %44, %43, %39, %35, %34, %33, %28, %27, %25, %24, %21, %16, %.split.split.split.i
  %.1.be = phi i32 [ %.1, %.split.split.split.i ], [ %.1, %47 ], [ %.1, %44 ], [ %.1, %43 ], [ %37, %39 ], [ %37, %35 ], [ %.1, %34 ], [ %.1, %27 ], [ %.1, %28 ], [ %.1, %33 ], [ %.1, %21 ], [ %.1, %24 ], [ %.1, %25 ], [ %.1, %16 ]
  %.043.i.be = phi ptr [ %14, %.split.split.split.i ], [ %14, %47 ], [ %14, %44 ], [ %14, %43 ], [ %14, %39 ], [ %14, %35 ], [ %14, %34 ], [ %14, %27 ], [ %14, %28 ], [ %14, %33 ], [ %spec.select.i, %21 ], [ %14, %24 ], [ %14, %25 ], [ %17, %16 ]
  %.040.i.be = phi i32 [ %.040.i, %.split.split.split.i ], [ %.040.i, %47 ], [ %45, %44 ], [ %.040.i, %43 ], [ %36, %39 ], [ %36, %35 ], [ %.040.i, %34 ], [ %.040.i, %27 ], [ %.040.i, %28 ], [ %.040.i, %33 ], [ %.040.i, %21 ], [ %.040.i, %24 ], [ %.040.i, %25 ], [ %.040.i, %16 ]
  %.038.i.be = phi ptr [ %.038.i, %.split.split.split.i ], [ %.038.i, %47 ], [ null, %44 ], [ %.038.i, %43 ], [ null, %39 ], [ null, %35 ], [ %.038.i, %34 ], [ null, %27 ], [ %.038.i, %28 ], [ %spec.store.select.i, %33 ], [ %spec.select.i, %21 ], [ %.038.i, %24 ], [ %.038.i, %25 ], [ %.038.i, %16 ]
  %.037.i.be = phi i32 [ %.037.i, %.split.split.split.i ], [ %.037.i, %47 ], [ %.037.i, %44 ], [ %.037.i, %43 ], [ %.037.i, %39 ], [ %.037.i, %35 ], [ %.037.i, %34 ], [ %.037.i, %27 ], [ 0, %28 ], [ %.037.i, %33 ], [ %.037.i, %21 ], [ %.037.i, %24 ], [ %26, %25 ], [ %.037.i, %16 ]
  br label %.split.split.split.i

gobble.exit.thread:                               ; preds = %.lr.ph, %44, %16, %.split.split.split.i
  %.010 = phi i32 [ 0, %.split.split.split.i ], [ 0, %16 ], [ 0, %44 ], [ 1, %.lr.ph ]
  ret i32 %.010
}